; Function Attrs: nounwind uwtable
define nonnull ptr @l_Array_qsort_sort___at_Lean_Compiler_LCNF_AlphaEqv_sortAlts___spec__1___lambda__1___boxed(ptr noundef %0, ptr noundef %1) #0 {
  %3 = ptrtoint ptr %0 to i64
  %4 = and i64 %3, 1
  %.not.i.i = icmp eq i64 %4, 0
  br i1 %.not.i.i, label %8, label %5

5:                                                ; preds = %2
  %6 = lshr i64 %3, 1
  %7 = trunc i64 %6 to i32
  br label %lean_obj_tag.exit.i

8:                                                ; preds = %2
  %9 = getelementptr i8, ptr %0, i64 4
  %.val.i.i = load i32, ptr %9, align 4
  %10 = lshr i32 %.val.i.i, 24
  br label %lean_obj_tag.exit.i

lean_obj_tag.exit.i:                              ; preds = %8, %5
  %.0.i.i = phi i32 [ %7, %5 ], [ %10, %8 ]
  %11 = icmp eq i32 %.0.i.i, 0
  %12 = ptrtoint ptr %1 to i64
  %13 = and i64 %12, 1
  br i1 %11, label %14, label %l_Array_qsort_sort___at_Lean_Compiler_LCNF_AlphaEqv_sortAlts___spec__1___lambda__1.exit

14:                                               ; preds = %lean_obj_tag.exit.i
  %.not.i9.i = icmp eq i64 %13, 0
  br i1 %.not.i9.i, label %18, label %15

15:                                               ; preds = %14
  %16 = lshr i64 %12, 1
  %17 = trunc i64 %16 to i32
  br label %lean_obj_tag.exit12.i

18:                                               ; preds = %14
  %19 = getelementptr i8, ptr %1, i64 4
  %.val.i11.i = load i32, ptr %19, align 4
  %20 = lshr i32 %.val.i11.i, 24
  br label %lean_obj_tag.exit12.i

lean_obj_tag.exit12.i:                            ; preds = %18, %15
  %.0.i10.i = phi i32 [ %17, %15 ], [ %20, %18 ]
  %21 = icmp eq i32 %.0.i10.i, 0
  br i1 %21, label %22, label %l_Array_qsort_sort___at_Lean_Compiler_LCNF_AlphaEqv_sortAlts___spec__1___lambda__1.exit

22:                                               ; preds = %lean_obj_tag.exit12.i
  %23 = getelementptr inbounds nuw i8, ptr %0, i64 8
  %24 = load ptr, ptr %23, align 8, !tbaa !4
  %25 = getelementptr inbounds nuw i8, ptr %1, i64 8
  %26 = load ptr, ptr %25, align 8, !tbaa !4
  %27 = tail call zeroext i8 @l_Lean_Name_lt(ptr noundef %24, ptr noundef %26) #4
  %28 = zext i8 %27 to i64
  %29 = shl nuw nsw i64 %28, 1
  %30 = or disjoint i64 %29, 1
  br label %l_Array_qsort_sort___at_Lean_Compiler_LCNF_AlphaEqv_sortAlts___spec__1___lambda__1.exit

l_Array_qsort_sort___at_Lean_Compiler_LCNF_AlphaEqv_sortAlts___spec__1___lambda__1.exit: ; preds = %lean_obj_tag.exit.i, %lean_obj_tag.exit12.i, %22
  %.0.i = phi i64 [ 3, %lean_obj_tag.exit12.i ], [ %30, %22 ], [ 1, %lean_obj_tag.exit.i ]
  %.not = icmp eq i64 %13, 0
  br i1 %.not, label %31, label %lean_dec.exit5

31:                                               ; preds = %l_Array_qsort_sort___at_Lean_Compiler_LCNF_AlphaEqv_sortAlts___spec__1___lambda__1.exit
  %32 = load i32, ptr %1, align 4, !tbaa !8
  %33 = icmp sgt i32 %32, 1
  br i1 %33, label %34, label %36, !prof !11

34:                                               ; preds = %31
  %35 = add nsw i32 %32, -1
  store i32 %35, ptr %1, align 4, !tbaa !8
  br label %lean_dec.exit5

36:                                               ; preds = %31
  %.not.i = icmp eq i32 %32, 0
  br i1 %.not.i, label %lean_dec.exit5, label %37

37:                                               ; preds = %36
  tail call void @lean_dec_ref_cold(ptr noundef nonnull %1) #4
  br label %lean_dec.exit5

lean_dec.exit5:                                   ; preds = %37, %36, %34, %l_Array_qsort_sort___at_Lean_Compiler_LCNF_AlphaEqv_sortAlts___spec__1___lambda__1.exit
  br i1 %.not.i.i, label %38, label %lean_dec.exit

38:                                               ; preds = %lean_dec.exit5
  %39 = load i32, ptr %0, align 4, !tbaa !8
  %40 = icmp sgt i32 %39, 1
  br i1 %40, label %41, label %43, !prof !11

41:                                               ; preds = %38
  %42 = add nsw i32 %39, -1
  store i32 %42, ptr %0, align 4, !tbaa !8
  br label %lean_dec.exit

43:                                               ; preds = %38
  %.not.i6 = icmp eq i32 %39, 0
  br i1 %.not.i6, label %lean_dec.exit, label %44

44:                                               ; preds = %43
  tail call void @lean_dec_ref_cold(ptr noundef nonnull %0) #4
  br label %lean_dec.exit

lean_dec.exit:                                    ; preds = %44, %43, %41, %lean_dec.exit5
  %45 = inttoptr i64 %.0.i to ptr
  ret ptr %45
}